; Function Attrs: mustprogress uwtable
define void @_ZN4base6Pickle7ReserveEm(ptr noundef nonnull align 8 dereferenceable(40) %0, i64 noundef %1) local_unnamed_addr #0 align 2 personality ptr @__gxx_personality_v0 {
  %3 = add i64 %1, 3
  %4 = and i64 %3, -4
  %5 = getelementptr inbounds nuw i8, ptr %0, i64 32
  %6 = load i64, ptr %5, align 8, !tbaa !8
  %7 = add i64 %6, %4
  %8 = getelementptr inbounds nuw i8, ptr %0, i64 24
  %9 = load i64, ptr %8, align 8, !tbaa !12
  %10 = icmp ugt i64 %7, %9
  br i1 %10, label %11, label %14

11:                                               ; preds = %2
  %12 = shl i64 %9, 1
  %13 = add i64 %12, %7
  tail call void @_ZN4base6Pickle6ResizeEm(ptr noundef nonnull align 8 dereferenceable(40) %0, i64 noundef %13)
  br label %14

14:                                               ; preds = %11, %2
  ret void
}